; Function Attrs: null_pointer_is_valid sspstrong uwtable
define internal void @dissect_pfcp_mt_sdt_control_information(ptr noundef %0, ptr noundef %1, ptr noundef %2, ptr readnone captures(none) %3, i16 noundef zeroext %4, i8 zeroext %5, ptr readnone captures(none) %6) #0 {
  tail call void @proto_tree_add_bitmask_list(ptr noundef %2, ptr noundef %0, i32 noundef 0, i32 noundef 1, ptr noundef nonnull @dissect_pfcp_mt_sdt_control_information.pfcp_mt_sdt_control_information_flags, i32 noundef 0)
  %8 = icmp ugt i16 %4, 1
  br i1 %8, label %9, label %11

9:                                                ; preds = %7
  %10 = tail call ptr @proto_tree_add_expert(ptr noundef %2, ptr noundef %1, ptr noundef nonnull @ei_pfcp_ie_data_not_decoded, ptr noundef %0, i32 noundef 1, i32 noundef -1)
  br label %11

11:                                               ; preds = %9, %7
  ret void
}